target datalayout = "e-m:e-p270:32:32-p271:32:32-p272:64:64-i64:64-i128:128-f80:128-n8:16:32:64-S128"
target triple = "x86_64-pc-linux-gnu"

; Function Attrs: nounwind uwtable
define internal i32 @_parse_range(ptr noundef %0, ptr noundef %1) #0 {
  %3 = alloca i32, align 4
  %4 = alloca ptr, align 8
  %5 = alloca ptr, align 8
  %6 = alloca ptr, align 8
  %7 = alloca i8, align 1
  %8 = alloca i32, align 4
  store ptr %0, ptr %4, align 8
  store ptr %1, ptr %5, align 8
  call void @llvm.lifetime.start.p0(i64 8, ptr %6) #6
  %9 = load ptr, ptr %5, align 8
  %10 = load ptr, ptr %9, align 8
  store ptr %10, ptr %6, align 8
  call void @llvm.lifetime.start.p0(i64 1, ptr %7) #6
  br label %11

11:                                               ; preds = %35, %2
  %12 = call ptr @__ctype_b_loc() #8
  %13 = load ptr, ptr %12, align 8
  %14 = load ptr, ptr %6, align 8
  %15 = load i8, ptr %14, align 1
  %16 = sext i8 %15 to i32
  %17 = sext i32 %16 to i64
  %18 = getelementptr inbounds i16, ptr %13, i64 %17
  %19 = load i16, ptr %18, align 2
  %20 = zext i16 %19 to i32
  %21 = and i32 %20, 2048
  %22 = icmp ne i32 %21, 0
  br i1 %22, label %33, label %23

23:                                               ; preds = %11
  %24 = load ptr, ptr %6, align 8
  %25 = load i8, ptr %24, align 1
  %26 = sext i8 %25 to i32
  %27 = icmp eq i32 %26, 45
  br i1 %27, label %33, label %28

28:                                               ; preds = %23
  %29 = load ptr, ptr %6, align 8
  %30 = load i8, ptr %29, align 1
  %31 = sext i8 %30 to i32
  %32 = icmp eq i32 %31, 44
  br label %33

33:                                               ; preds = %28, %23, %11
  %34 = phi i1 [ true, %23 ], [ true, %11 ], [ %32, %28 ]
  br i1 %34, label %35, label %38

35:                                               ; preds = %33
  %36 = load ptr, ptr %6, align 8
  %37 = getelementptr inbounds nuw i8, ptr %36, i32 1
  store ptr %37, ptr %6, align 8
  br label %11, !llvm.loop !15

38:                                               ; preds = %33
  %39 = load ptr, ptr %6, align 8
  %40 = load i8, ptr %39, align 1
  store i8 %40, ptr %7, align 1
  %41 = load ptr, ptr %6, align 8
  store i8 0, ptr %41, align 1
  %42 = load ptr, ptr %4, align 8
  %43 = load ptr, ptr %5, align 8
  %44 = load ptr, ptr %43, align 8
  %45 = call i32 @bit_unfmt(ptr noundef %42, ptr noundef %44)
  %46 = icmp ne i32 %45, 0
  br i1 %46, label %47, label %50

47:                                               ; preds = %38
  %48 = load i8, ptr %7, align 1
  %49 = load ptr, ptr %6, align 8
  store i8 %48, ptr %49, align 1
  store i32 -1, ptr %3, align 4
  store i32 1, ptr %8, align 4
  br label %55

50:                                               ; preds = %38
  %51 = load i8, ptr %7, align 1
  %52 = load ptr, ptr %6, align 8
  store i8 %51, ptr %52, align 1
  %53 = load ptr, ptr %6, align 8
  %54 = load ptr, ptr %5, align 8
  store ptr %53, ptr %54, align 8
  store i32 0, ptr %3, align 4
  store i32 1, ptr %8, align 4
  br label %55

55:                                               ; preds = %50, %47
  call void @llvm.lifetime.end.p0(i64 1, ptr %7) #6
  call void @llvm.lifetime.end.p0(i64 8, ptr %6) #6
  %56 = load i32, ptr %3, align 4
  ret i32 %56
}