; Function Attrs: nounwind uwtable
define internal fastcc range(i32 -1, 1) i32 @_parse_range(ptr noundef %0, ptr noundef nonnull captures(none) %1) unnamed_addr #0 {
  %3 = load ptr, ptr %1, align 8
  %4 = tail call ptr @__ctype_b_loc() #10
  %5 = load ptr, ptr %4, align 8
  br label %.critedge

.critedge:                                        ; preds = %.critedge, %2
  %.015 = phi ptr [ %3, %2 ], [ %12, %.critedge ]
  %6 = load i8, ptr %.015, align 1
  %7 = sext i8 %6 to i64
  %8 = getelementptr inbounds i16, ptr %5, i64 %7
  %9 = load i16, ptr %8, align 2
  %.fr19 = freeze i16 %9
  %10 = and i16 %.fr19, 2048
  %.not = icmp ne i16 %10, 0
  %11 = and i8 %6, -2
  %switch = icmp eq i8 %11, 44
  %or.cond = or i1 %switch, %.not
  %12 = getelementptr inbounds nuw i8, ptr %.015, i64 1
  br i1 %or.cond, label %.critedge, label %13, !llvm.loop !8

13:                                               ; preds = %.critedge
  store i8 0, ptr %.015, align 1
  %14 = load ptr, ptr %1, align 8
  %15 = tail call i32 @bit_unfmt(ptr noundef %0, ptr noundef %14) #8
  %.not17 = icmp eq i32 %15, 0
  store i8 %6, ptr %.015, align 1
  br i1 %.not17, label %16, label %17

16:                                               ; preds = %13
  store ptr %.015, ptr %1, align 8
  br label %17

17:                                               ; preds = %13, %16
  %.0 = phi i32 [ 0, %16 ], [ -1, %13 ]
  ret i32 %.0
}